; ModuleID = 'bench/nuttx/original/lib_memcpy.c.ll'
source_filename = "bench/nuttx/original/lib_memcpy.c.ll"
target datalayout = "e-m:e-p270:32:32-p271:32:32-p272:64:64-i64:64-i128:128-f80:128-n8:16:32:64-S128"
target triple = "x86_64-pc-linux-gnu"

; Function Attrs: nofree norecurse nosync nounwind memory(argmem: readwrite) uwtable
define noundef ptr @memcpy(ptr noundef returned writeonly %0, ptr noundef readonly captures(none) %1, i64 noundef %2) local_unnamed_addr #0 {
  %.not7 = icmp eq i64 %2, 0
  br i1 %.not7, label %._crit_edge, label %.lr.ph

.lr.ph:                                           ; preds = %3, %.lr.ph
  %.010 = phi ptr [ %5, %.lr.ph ], [ %1, %3 ]
  %.059 = phi ptr [ %7, %.lr.ph ], [ %0, %3 ]
  %.068 = phi i64 [ %4, %.lr.ph ], [ %2, %3 ]
  %4 = add i64 %.068, -1
  %5 = getelementptr inbounds nuw i8, ptr %.010, i64 1
  %6 = load i8, ptr %.010, align 1
  %7 = getelementptr inbounds nuw i8, ptr %.059, i64 1
  store i8 %6, ptr %.059, align 1
  %.not = icmp eq i64 %4, 0
  br i1 %.not, label %._crit_edge, label %.lr.ph, !llvm.loop !6

._crit_edge:                                      ; preds = %.lr.ph, %3
  ret ptr %0
}


!llvm.module.flags = !{!0, !1, !2, !3, !4, !5}

!0 = !{i32 7, !"Dwarf Version", i32 5}
!1 = !{i32 2, !"Debug Info Version", i32 3}
!2 = !{i32 1, !"wchar_size", i32 4}
!3 = !{i32 8, !"PIC Level", i32 2}
!4 = !{i32 7, !"uwtable", i32 2}
!5 = !{i32 7, !"frame-pointer", i32 2}
!6 = distinct !{!6, !7}
!7 = !{!"llvm.loop.mustprogress"}
